; Function Attrs: nofree norecurse nosync nounwind memory(argmem: read) uwtable
define noundef i32 @Gia_ManFindRepr_rec(ptr noundef readonly captures(none) %0, i32 noundef %1) local_unnamed_addr #7 {
  br label %tailrecurse

tailrecurse:                                      ; preds = %tailrecurse, %2
  %.tr9 = phi i32 [ %1, %2 ], [ %5, %tailrecurse ]
  %3 = sext i32 %.tr9 to i64
  %4 = getelementptr inbounds i32, ptr %0, i64 %3
  %5 = load i32, ptr %4, align 4
  switch i32 %5, label %tailrecurse [
    i32 0, label %.loopexit.loopexit
    i32 -1, label %.loopexit
  ]

.loopexit.loopexit:                               ; preds = %tailrecurse
  br label %.loopexit

.loopexit:                                        ; preds = %tailrecurse, %.loopexit.loopexit
  %.0 = phi i32 [ %5, %.loopexit.loopexit ], [ %.tr9, %tailrecurse ]
  ret i32 %.0
}